; Function Attrs: mustprogress sspstrong uwtable
define noundef zeroext i1 @_ZN3tbb6detail2r117threading_control26is_any_other_client_activeEv(ptr noundef nonnull readonly align 8 captures(none) dereferenceable(16) %0) local_unnamed_addr #0 align 2 {
  %2 = load ptr, ptr %0, align 8, !tbaa !150
  %3 = getelementptr inbounds nuw i8, ptr %2, i64 16
  %4 = load ptr, ptr %3, align 8, !tbaa !54
  %5 = tail call noundef i32 @_ZN3tbb6detail2r131thread_request_serializer_proxy21num_workers_requestedEv(ptr noundef nonnull align 8 dereferenceable(64) %4)
  %6 = icmp sgt i32 %5, 0
  br i1 %6, label %7, label %_ZN3tbb6detail2r122threading_control_impl26is_any_other_client_activeEv.exit

7:                                                ; preds = %1
  %8 = getelementptr inbounds nuw i8, ptr %2, i64 8
  %9 = load ptr, ptr %8, align 8, !tbaa !25
  %10 = tail call noundef zeroext i1 @_ZN3tbb6detail2r117thread_dispatcher21is_any_client_in_needEv(ptr noundef nonnull align 8 dereferenceable(152) %9)
  br label %_ZN3tbb6detail2r122threading_control_impl26is_any_other_client_activeEv.exit

_ZN3tbb6detail2r122threading_control_impl26is_any_other_client_activeEv.exit: ; preds = %1, %7
  %11 = phi i1 [ %10, %7 ], [ false, %1 ]
  ret i1 %11
}